; Function Attrs: mustprogress nofree norecurse nosync nounwind willreturn memory(argmem: write) uwtable
define void @_ZN6google8protobuf4EnumC2EPNS0_5ArenaE(ptr nocapture noundef nonnull writeonly align 8 dereferenceable(104) %this, ptr noundef %arena) unnamed_addr #5 align 2 personality ptr @__gxx_personality_v0 {
invoke.cont:
  %_internal_metadata_.i.i = getelementptr inbounds i8, ptr %this, i64 8
  %0 = ptrtoint ptr %arena to i64
  store i64 %0, ptr %_internal_metadata_.i.i, align 8
  store ptr getelementptr inbounds ({ [13 x ptr] }, ptr @_ZTVN6google8protobuf4EnumE, i64 0, i32 0, i64 2), ptr %this, align 8
  %arrayinit.cur.i.i.ptr.i = getelementptr inbounds i8, ptr %this, i64 16
  %arena_.i.i.i.i = getelementptr inbounds i8, ptr %this, i64 40
  tail call void @llvm.memset.p0.i64(ptr noundef nonnull align 8 dereferenceable(24) %arrayinit.cur.i.i.ptr.i, i8 0, i64 24, i1 false)
  store ptr %arena, ptr %arena_.i.i.i.i, align 8
  %options_.i.i = getelementptr inbounds i8, ptr %this, i64 48
  %arena_.i.i.i5.i = getelementptr inbounds i8, ptr %this, i64 64
  tail call void @llvm.memset.p0.i64(ptr noundef nonnull align 8 dereferenceable(16) %options_.i.i, i8 0, i64 16, i1 false)
  store ptr %arena, ptr %arena_.i.i.i5.i, align 8
  %name_.i.i = getelementptr inbounds i8, ptr %this, i64 72
  store ptr @_ZN6google8protobuf8internal26fixed_address_empty_stringB5cxx11E, ptr %name_.i.i, align 8
  %edition_.i.i = getelementptr inbounds i8, ptr %this, i64 80
  store ptr @_ZN6google8protobuf8internal26fixed_address_empty_stringB5cxx11E, ptr %edition_.i.i, align 8
  %add.ptr.i = getelementptr inbounds i8, ptr %this, i64 88
  tail call void @llvm.memset.p0.i64(ptr noundef nonnull align 8 dereferenceable(12) %add.ptr.i, i8 0, i64 12, i1 false)
  ret void
}